; Function Attrs: mustprogress uwtable
define dso_local void @_ZN3net18ReliableQuicStream13OnStreamResetERKNS_18QuicRstStreamFrameE(ptr noundef nonnull align 8 dereferenceable(377) %this, ptr nocapture noundef nonnull readonly align 8 dereferenceable(16) %frame) unnamed_addr #2 align 2 {
entry:
  %rst_received_ = getelementptr inbounds i8, ptr %this, i64 262
  store i8 1, ptr %rst_received_, align 2
  %byte_offset = getelementptr inbounds i8, ptr %frame, i64 8
  %0 = load i64, ptr %byte_offset, align 8
  %flow_controller_.i = getelementptr inbounds i8, ptr %this, i64 272
  %highest_received_byte_offset_.i.i = getelementptr inbounds i8, ptr %this, i64 312
  %1 = load i64, ptr %highest_received_byte_offset_.i.i, align 8
  %sub.i = sub i64 %0, %1
  %call3.i = tail call noundef zeroext i1 @_ZN3net18QuicFlowController27UpdateHighestReceivedOffsetEm(ptr noundef nonnull align 8 dereferenceable(96) %flow_controller_.i, i64 noundef %0)
  br i1 %call3.i, label %if.end.i, label %_ZN3net18ReliableQuicStream34MaybeIncreaseHighestReceivedOffsetEm.exit

if.end.i:                                         ; preds = %entry
  %stream_contributes_to_connection_flow_control_.i = getelementptr inbounds i8, ptr %this, i64 376
  %2 = load i8, ptr %stream_contributes_to_connection_flow_control_.i, align 8
  %3 = and i8 %2, 1
  %tobool.not.i = icmp eq i8 %3, 0
  br i1 %tobool.not.i, label %_ZN3net18ReliableQuicStream34MaybeIncreaseHighestReceivedOffsetEm.exit, label %if.then4.i

if.then4.i:                                       ; preds = %if.end.i
  %connection_flow_controller_.i = getelementptr inbounds i8, ptr %this, i64 368
  %4 = load ptr, ptr %connection_flow_controller_.i, align 8
  %highest_received_byte_offset_.i2.i = getelementptr inbounds i8, ptr %4, i64 40
  %5 = load i64, ptr %highest_received_byte_offset_.i2.i, align 8
  %add.i = add i64 %sub.i, %5
  %call7.i = tail call noundef zeroext i1 @_ZN3net18QuicFlowController27UpdateHighestReceivedOffsetEm(ptr noundef nonnull align 8 dereferenceable(96) %4, i64 noundef %add.i)
  br label %_ZN3net18ReliableQuicStream34MaybeIncreaseHighestReceivedOffsetEm.exit

_ZN3net18ReliableQuicStream34MaybeIncreaseHighestReceivedOffsetEm.exit: ; preds = %entry, %if.end.i, %if.then4.i
  %error_code = getelementptr inbounds i8, ptr %frame, i64 4
  %6 = load i32, ptr %error_code, align 4
  %stream_error_ = getelementptr inbounds i8, ptr %this, i64 248
  store i32 %6, ptr %stream_error_, align 8
  %vtable = load ptr, ptr %this, align 8
  %vfn = getelementptr inbounds i8, ptr %vtable, i64 112
  %7 = load ptr, ptr %vfn, align 8
  tail call void %7(ptr noundef nonnull align 8 dereferenceable(377) %this)
  %read_side_closed_.i = getelementptr inbounds i8, ptr %this, i64 256
  %8 = load i8, ptr %read_side_closed_.i, align 8
  %9 = and i8 %8, 1
  %tobool.not.i2 = icmp eq i8 %9, 0
  br i1 %tobool.not.i2, label %if.end.i3, label %_ZN3net18ReliableQuicStream13CloseReadSideEv.exit

if.end.i3:                                        ; preds = %_ZN3net18ReliableQuicStream34MaybeIncreaseHighestReceivedOffsetEm.exit
  store i8 1, ptr %read_side_closed_.i, align 8
  %sequencer_.i = getelementptr inbounds i8, ptr %this, i64 40
  tail call void @_ZN3net19QuicStreamSequencer13ReleaseBufferEv(ptr noundef nonnull align 8 dereferenceable(169) %sequencer_.i)
  %write_side_closed_.i = getelementptr inbounds i8, ptr %this, i64 257
  %10 = load i8, ptr %write_side_closed_.i, align 1
  %11 = and i8 %10, 1
  %tobool3.not.i = icmp eq i8 %11, 0
  br i1 %tobool3.not.i, label %_ZN3net18ReliableQuicStream13CloseReadSideEv.exit, label %if.then4.i4

if.then4.i4:                                      ; preds = %if.end.i3
  %session_.i = getelementptr inbounds i8, ptr %this, i64 224
  %12 = load ptr, ptr %session_.i, align 8
  %id_.i.i = getelementptr inbounds i8, ptr %this, i64 216
  %13 = load i32, ptr %id_.i.i, align 8
  %vtable.i = load ptr, ptr %12, align 8
  %vfn.i = getelementptr inbounds i8, ptr %vtable.i, i64 176
  %14 = load ptr, ptr %vfn.i, align 8
  tail call void %14(ptr noundef nonnull align 8 dereferenceable(2044) %12, i32 noundef %13)
  br label %_ZN3net18ReliableQuicStream13CloseReadSideEv.exit

_ZN3net18ReliableQuicStream13CloseReadSideEv.exit: ; preds = %_ZN3net18ReliableQuicStream34MaybeIncreaseHighestReceivedOffsetEm.exit, %if.end.i3, %if.then4.i4
  ret void
}